target datalayout = "e-m:e-p270:32:32-p271:32:32-p272:64:64-i64:64-i128:128-f80:128-n8:16:32:64-S128"
target triple = "x86_64-pc-linux-gnu"

%struct.saucy = type { i32, ptr, ptr, ptr, ptr, %struct.coloring, %struct.coloring, ptr, ptr, ptr, ptr, ptr, i32, i32, ptr, i32, ptr, ptr, ptr, ptr, ptr, ptr, ptr, i32, i32, ptr, i32, ptr, i32, i32, ptr, ptr, ptr, ptr, ptr, ptr, ptr, ptr, ptr, ptr, i32, ptr, ptr, ptr, i32, ptr, i32, ptr, ptr, ptr, ptr, i32, ptr, ptr, i32, ptr, ptr, ptr, ptr, ptr, ptr, ptr, ptr, ptr, ptr, ptr, ptr, ptr, ptr, ptr, ptr, ptr, ptr, ptr, ptr, ptr, ptr, double, i32, i32, i32, ptr, ptr, ptr, ptr }
%struct.coloring = type { ptr, ptr, ptr, ptr }
%struct.Vec_Int_t_ = type { i32, i32, ptr }
%struct.saucy_graph = type { i32, i32, ptr, ptr }

@NUM_SIM2_ITERATION = global i32 0, align 4

; Function Attrs: nounwind uwtable
define internal void @Vec_IntFree(ptr noundef %0) #0 {
  %2 = alloca ptr, align 8
  store ptr %0, ptr %2, align 8
  %3 = load ptr, ptr %2, align 8
  %4 = getelementptr inbounds %struct.Vec_Int_t_, ptr %3, i32 0, i32 2
  %5 = load ptr, ptr %4, align 8
  %6 = icmp ne ptr %5, null
  br i1 %6, label %7, label %13

7:                                                ; preds = %1
  %8 = load ptr, ptr %2, align 8
  %9 = getelementptr inbounds %struct.Vec_Int_t_, ptr %8, i32 0, i32 2
  %10 = load ptr, ptr %9, align 8
  call void @free(ptr noundef %10) #10
  %11 = load ptr, ptr %2, align 8
  %12 = getelementptr inbounds %struct.Vec_Int_t_, ptr %11, i32 0, i32 2
  store ptr null, ptr %12, align 8
  br label %14

13:                                               ; preds = %1
  br label %14

14:                                               ; preds = %13, %7
  %15 = load ptr, ptr %2, align 8
  %16 = icmp ne ptr %15, null
  br i1 %16, label %17, label %19

17:                                               ; preds = %14
  %18 = load ptr, ptr %2, align 8
  call void @free(ptr noundef %18) #10
  store ptr null, ptr %2, align 8
  br label %20

19:                                               ; preds = %14
  br label %20

20:                                               ; preds = %19, %17
  ret void
}

; Function Attrs: nounwind uwtable
define internal i32 @refineByDepGraph(ptr noundef %0, ptr noundef %1) #0 {
  %3 = alloca ptr, align 8
  %4 = alloca ptr, align 8
  store ptr %0, ptr %3, align 8
  store ptr %1, ptr %4, align 8
  %5 = load ptr, ptr %3, align 8
  %6 = getelementptr inbounds %struct.saucy, ptr %5, i32 0, i32 63
  %7 = load ptr, ptr %6, align 8
  %8 = load ptr, ptr %3, align 8
  %9 = getelementptr inbounds %struct.saucy, ptr %8, i32 0, i32 1
  store ptr %7, ptr %9, align 8
  %10 = load ptr, ptr %3, align 8
  %11 = getelementptr inbounds %struct.saucy, ptr %10, i32 0, i32 64
  %12 = load ptr, ptr %11, align 8
  %13 = load ptr, ptr %3, align 8
  %14 = getelementptr inbounds %struct.saucy, ptr %13, i32 0, i32 2
  store ptr %12, ptr %14, align 8
  %15 = load ptr, ptr %3, align 8
  %16 = load ptr, ptr %4, align 8
  %17 = call i32 @refine(ptr noundef %15, ptr noundef %16)
  ret i32 %17
}

; Function Attrs: nounwind uwtable
define internal void @add_induce(ptr noundef %0, ptr noundef %1, i32 noundef %2) #0 {
  %4 = alloca ptr, align 8
  %5 = alloca ptr, align 8
  %6 = alloca i32, align 4
  store ptr %0, ptr %4, align 8
  store ptr %1, ptr %5, align 8
  store i32 %2, ptr %6, align 4
  %7 = load ptr, ptr %5, align 8
  %8 = getelementptr inbounds %struct.coloring, ptr %7, i32 0, i32 3
  %9 = load ptr, ptr %8, align 8
  %10 = load i32, ptr %6, align 4
  %11 = sext i32 %10 to i64
  %12 = getelementptr inbounds i32, ptr %9, i64 %11
  %13 = load i32, ptr %12, align 4
  %14 = icmp ne i32 %13, 0
  br i1 %14, label %26, label %15

15:                                               ; preds = %3
  %16 = load i32, ptr %6, align 4
  %17 = load ptr, ptr %4, align 8
  %18 = getelementptr inbounds %struct.saucy, ptr %17, i32 0, i32 11
  %19 = load ptr, ptr %18, align 8
  %20 = load ptr, ptr %4, align 8
  %21 = getelementptr inbounds %struct.saucy, ptr %20, i32 0, i32 13
  %22 = load i32, ptr %21, align 4
  %23 = add nsw i32 %22, 1
  store i32 %23, ptr %21, align 4
  %24 = sext i32 %22 to i64
  %25 = getelementptr inbounds i32, ptr %19, i64 %24
  store i32 %16, ptr %25, align 4
  br label %37

26:                                               ; preds = %3
  %27 = load i32, ptr %6, align 4
  %28 = load ptr, ptr %4, align 8
  %29 = getelementptr inbounds %struct.saucy, ptr %28, i32 0, i32 10
  %30 = load ptr, ptr %29, align 8
  %31 = load ptr, ptr %4, align 8
  %32 = getelementptr inbounds %struct.saucy, ptr %31, i32 0, i32 12
  %33 = load i32, ptr %32, align 8
  %34 = add nsw i32 %33, 1
  store i32 %34, ptr %32, align 8
  %35 = sext i32 %33 to i64
  %36 = getelementptr inbounds i32, ptr %30, i64 %35
  store i32 %27, ptr %36, align 4
  br label %37

37:                                               ; preds = %26, %15
  %38 = load ptr, ptr %4, align 8
  %39 = getelementptr inbounds %struct.saucy, ptr %38, i32 0, i32 9
  %40 = load ptr, ptr %39, align 8
  %41 = load i32, ptr %6, align 4
  %42 = sext i32 %41 to i64
  %43 = getelementptr inbounds i8, ptr %40, i64 %42
  store i8 1, ptr %43, align 1
  ret void
}

; Function Attrs: nounwind uwtable
define internal i32 @refineBySim2_init(ptr noundef %0, ptr noundef %1) #0 {
  %3 = alloca ptr, align 8
  %4 = alloca ptr, align 8
  %5 = alloca ptr, align 8
  %6 = alloca ptr, align 8
  %7 = alloca i32, align 4
  %8 = alloca i32, align 4
  %9 = alloca i32, align 4
  store ptr %0, ptr %3, align 8
  store ptr %1, ptr %4, align 8
  store i32 0, ptr %7, align 4
  br label %10

10:                                               ; preds = %142, %2
  %11 = load i32, ptr %7, align 4
  %12 = load i32, ptr @NUM_SIM2_ITERATION, align 4
  %13 = icmp slt i32 %11, %12
  br i1 %13, label %14, label %145

14:                                               ; preds = %10
  %15 = load ptr, ptr %3, align 8
  %16 = getelementptr inbounds %struct.saucy, ptr %15, i32 0, i32 61
  %17 = load ptr, ptr %16, align 8
  %18 = load ptr, ptr %4, align 8
  %19 = call ptr @assignRandomBitsToCells(ptr noundef %17, ptr noundef %18)
  store ptr %19, ptr %6, align 8
  %20 = load ptr, ptr %3, align 8
  %21 = getelementptr inbounds %struct.saucy, ptr %20, i32 0, i32 61
  %22 = load ptr, ptr %21, align 8
  %23 = load ptr, ptr %4, align 8
  %24 = load ptr, ptr %6, align 8
  %25 = load ptr, ptr %3, align 8
  %26 = getelementptr inbounds %struct.saucy, ptr %25, i32 0, i32 65
  %27 = load ptr, ptr %26, align 8
  %28 = load ptr, ptr %3, align 8
  %29 = getelementptr inbounds %struct.saucy, ptr %28, i32 0, i32 66
  %30 = load ptr, ptr %29, align 8
  %31 = load ptr, ptr %3, align 8
  %32 = getelementptr inbounds %struct.saucy, ptr %31, i32 0, i32 69
  %33 = load ptr, ptr %32, align 8
  %34 = load ptr, ptr %3, align 8
  %35 = getelementptr inbounds %struct.saucy, ptr %34, i32 0, i32 67
  %36 = load ptr, ptr %35, align 8
  %37 = load ptr, ptr %3, align 8
  %38 = getelementptr inbounds %struct.saucy, ptr %37, i32 0, i32 68
  %39 = load ptr, ptr %38, align 8
  %40 = call ptr @buildSim2Graph(ptr noundef %22, ptr noundef %23, ptr noundef %24, ptr noundef %27, ptr noundef %30, ptr noundef %33, ptr noundef %36, ptr noundef %39)
  store ptr %40, ptr %5, align 8
  %41 = load ptr, ptr %5, align 8
  %42 = getelementptr inbounds %struct.saucy_graph, ptr %41, i32 0, i32 2
  %43 = load ptr, ptr %42, align 8
  %44 = load ptr, ptr %3, align 8
  %45 = getelementptr inbounds %struct.saucy, ptr %44, i32 0, i32 1
  store ptr %43, ptr %45, align 8
  %46 = load ptr, ptr %5, align 8
  %47 = getelementptr inbounds %struct.saucy_graph, ptr %46, i32 0, i32 3
  %48 = load ptr, ptr %47, align 8
  %49 = load ptr, ptr %3, align 8
  %50 = getelementptr inbounds %struct.saucy, ptr %49, i32 0, i32 2
  store ptr %48, ptr %50, align 8
  %51 = load ptr, ptr %3, align 8
  %52 = getelementptr inbounds %struct.saucy, ptr %51, i32 0, i32 40
  %53 = load i32, ptr %52, align 8
  store i32 %53, ptr %9, align 4
  store i32 0, ptr %8, align 4
  br label %54

54:                                               ; preds = %64, %14
  %55 = load i32, ptr %8, align 4
  %56 = load ptr, ptr %3, align 8
  %57 = getelementptr inbounds %struct.saucy, ptr %56, i32 0, i32 0
  %58 = load i32, ptr %57, align 8
  %59 = icmp slt i32 %55, %58
  br i1 %59, label %60, label %75

60:                                               ; preds = %54
  %61 = load ptr, ptr %3, align 8
  %62 = load ptr, ptr %4, align 8
  %63 = load i32, ptr %8, align 4
  call void @add_induce(ptr noundef %61, ptr noundef %62, i32 noundef %63)
  br label %64

64:                                               ; preds = %60
  %65 = load ptr, ptr %4, align 8
  %66 = getelementptr inbounds %struct.coloring, ptr %65, i32 0, i32 3
  %67 = load ptr, ptr %66, align 8
  %68 = load i32, ptr %8, align 4
  %69 = sext i32 %68 to i64
  %70 = getelementptr inbounds i32, ptr %67, i64 %69
  %71 = load i32, ptr %70, align 4
  %72 = add nsw i32 %71, 1
  %73 = load i32, ptr %8, align 4
  %74 = add nsw i32 %73, %72
  store i32 %74, ptr %8, align 4
  br label %54, !llvm.loop !31

75:                                               ; preds = %54
  %76 = load ptr, ptr %3, align 8
  %77 = load ptr, ptr %4, align 8
  %78 = call i32 @refine(ptr noundef %76, ptr noundef %77)
  %79 = load ptr, ptr %3, align 8
  %80 = getelementptr inbounds %struct.saucy, ptr %79, i32 0, i32 40
  %81 = load i32, ptr %80, align 8
  %82 = load i32, ptr %9, align 4
  %83 = icmp sgt i32 %81, %82
  br i1 %83, label %84, label %110

84:                                               ; preds = %75
  store i32 0, ptr %7, align 4
  store i32 0, ptr %8, align 4
  br label %85

85:                                               ; preds = %95, %84
  %86 = load i32, ptr %8, align 4
  %87 = load ptr, ptr %3, align 8
  %88 = getelementptr inbounds %struct.saucy, ptr %87, i32 0, i32 0
  %89 = load i32, ptr %88, align 8
  %90 = icmp slt i32 %86, %89
  br i1 %90, label %91, label %106

91:                                               ; preds = %85
  %92 = load ptr, ptr %3, align 8
  %93 = load ptr, ptr %4, align 8
  %94 = load i32, ptr %8, align 4
  call void @add_induce(ptr noundef %92, ptr noundef %93, i32 noundef %94)
  br label %95

95:                                               ; preds = %91
  %96 = load ptr, ptr %4, align 8
  %97 = getelementptr inbounds %struct.coloring, ptr %96, i32 0, i32 3
  %98 = load ptr, ptr %97, align 8
  %99 = load i32, ptr %8, align 4
  %100 = sext i32 %99 to i64
  %101 = getelementptr inbounds i32, ptr %98, i64 %100
  %102 = load i32, ptr %101, align 4
  %103 = add nsw i32 %102, 1
  %104 = load i32, ptr %8, align 4
  %105 = add nsw i32 %104, %103
  store i32 %105, ptr %8, align 4
  br label %85, !llvm.loop !32

106:                                              ; preds = %85
  %107 = load ptr, ptr %3, align 8
  %108 = load ptr, ptr %4, align 8
  %109 = call i32 @refineByDepGraph(ptr noundef %107, ptr noundef %108)
  br label %110

110:                                              ; preds = %106, %75
  %111 = load ptr, ptr %6, align 8
  call void @Vec_IntFree(ptr noundef %111)
  %112 = load ptr, ptr %5, align 8
  %113 = getelementptr inbounds %struct.saucy_graph, ptr %112, i32 0, i32 2
  %114 = load ptr, ptr %113, align 8
  %115 = icmp ne ptr %114, null
  br i1 %115, label %116, label %122

116:                                              ; preds = %110
  %117 = load ptr, ptr %5, align 8
  %118 = getelementptr inbounds %struct.saucy_graph, ptr %117, i32 0, i32 2
  %119 = load ptr, ptr %118, align 8
  call void @free(ptr noundef %119) #10
  %120 = load ptr, ptr %5, align 8
  %121 = getelementptr inbounds %struct.saucy_graph, ptr %120, i32 0, i32 2
  store ptr null, ptr %121, align 8
  br label %123

122:                                              ; preds = %110
  br label %123

123:                                              ; preds = %122, %116
  %124 = load ptr, ptr %5, align 8
  %125 = getelementptr inbounds %struct.saucy_graph, ptr %124, i32 0, i32 3
  %126 = load ptr, ptr %125, align 8
  %127 = icmp ne ptr %126, null
  br i1 %127, label %128, label %134

128:                                              ; preds = %123
  %129 = load ptr, ptr %5, align 8
  %130 = getelementptr inbounds %struct.saucy_graph, ptr %129, i32 0, i32 3
  %131 = load ptr, ptr %130, align 8
  call void @free(ptr noundef %131) #10
  %132 = load ptr, ptr %5, align 8
  %133 = getelementptr inbounds %struct.saucy_graph, ptr %132, i32 0, i32 3
  store ptr null, ptr %133, align 8
  br label %135

134:                                              ; preds = %123
  br label %135

135:                                              ; preds = %134, %128
  %136 = load ptr, ptr %5, align 8
  %137 = icmp ne ptr %136, null
  br i1 %137, label %138, label %140

138:                                              ; preds = %135
  %139 = load ptr, ptr %5, align 8
  call void @free(ptr noundef %139) #10
  store ptr null, ptr %5, align 8
  br label %141

140:                                              ; preds = %135
  br label %141

141:                                              ; preds = %140, %138
  br label %142

142:                                              ; preds = %141
  %143 = load i32, ptr %7, align 4
  %144 = add nsw i32 %143, 1
  store i32 %144, ptr %7, align 4
  br label %10, !llvm.loop !33

145:                                              ; preds = %10
  ret i32 1
}