; Function Attrs: nounwind uwtable
define internal noundef i32 @refineBySim2_init(ptr noundef %0, ptr noundef %1) #0 {
  %3 = load i32, ptr @NUM_SIM2_ITERATION, align 4
  %4 = icmp sgt i32 %3, 0
  br i1 %4, label %.lr.ph66, label %._crit_edge67

.lr.ph66:                                         ; preds = %2
  %5 = getelementptr inbounds nuw i8, ptr %0, i64 512
  %6 = getelementptr inbounds nuw i8, ptr %0, i64 544
  %7 = getelementptr inbounds nuw i8, ptr %0, i64 576
  %8 = getelementptr inbounds nuw i8, ptr %0, i64 560
  %9 = getelementptr inbounds nuw i8, ptr %0, i64 568
  %10 = getelementptr inbounds nuw i8, ptr %0, i64 8
  %11 = getelementptr inbounds nuw i8, ptr %0, i64 16
  %12 = getelementptr inbounds nuw i8, ptr %0, i64 344
  %13 = getelementptr i8, ptr %1, i64 24
  %14 = getelementptr inbounds nuw i8, ptr %0, i64 128
  %15 = getelementptr inbounds nuw i8, ptr %0, i64 144
  %16 = getelementptr inbounds nuw i8, ptr %0, i64 136
  %17 = getelementptr inbounds nuw i8, ptr %0, i64 148
  %18 = getelementptr inbounds nuw i8, ptr %0, i64 120
  %19 = getelementptr inbounds nuw i8, ptr %0, i64 528
  %20 = getelementptr inbounds nuw i8, ptr %0, i64 536
  br label %21

21:                                               ; preds = %.lr.ph66, %96
  %.04764 = phi i32 [ 0, %.lr.ph66 ], [ %97, %96 ]
  %22 = load ptr, ptr %5, align 8
  %23 = tail call fastcc ptr @assignRandomBitsToCells(ptr noundef %22, ptr noundef %1)
  %24 = load ptr, ptr %5, align 8
  %25 = load ptr, ptr %6, align 8
  %26 = load ptr, ptr %7, align 8
  %27 = load ptr, ptr %8, align 8
  %28 = load ptr, ptr %9, align 8
  %29 = tail call fastcc ptr @buildSim2Graph(ptr noundef %24, ptr noundef %1, ptr noundef %23, ptr noundef %25, ptr noundef %26, ptr noundef %27, ptr noundef %28)
  %30 = getelementptr inbounds nuw i8, ptr %29, i64 8
  %31 = load ptr, ptr %30, align 8
  store ptr %31, ptr %10, align 8
  %32 = getelementptr inbounds nuw i8, ptr %29, i64 16
  %33 = load ptr, ptr %32, align 8
  store ptr %33, ptr %11, align 8
  %34 = load i32, ptr %12, align 8
  %35 = load i32, ptr %0, align 8
  %36 = icmp sgt i32 %35, 0
  br i1 %36, label %.lr.ph.preheader, label %._crit_edge

.lr.ph.preheader:                                 ; preds = %21
  %.val54.pre = load ptr, ptr %13, align 8
  br label %.lr.ph

.lr.ph:                                           ; preds = %.lr.ph.preheader, %add_induce.exit
  %.val54 = phi ptr [ %52, %add_induce.exit ], [ %.val54.pre, %.lr.ph.preheader ]
  %.060 = phi i32 [ %56, %add_induce.exit ], [ 0, %.lr.ph.preheader ]
  %37 = sext i32 %.060 to i64
  %38 = getelementptr inbounds i32, ptr %.val54, i64 %37
  %39 = load i32, ptr %38, align 4
  %.not.i = icmp eq i32 %39, 0
  br i1 %.not.i, label %40, label %44

40:                                               ; preds = %.lr.ph
  %41 = load ptr, ptr %16, align 8
  %42 = load i32, ptr %17, align 4
  %43 = add nsw i32 %42, 1
  store i32 %43, ptr %17, align 4
  br label %add_induce.exit

44:                                               ; preds = %.lr.ph
  %45 = load ptr, ptr %14, align 8
  %46 = load i32, ptr %15, align 8
  %47 = add nsw i32 %46, 1
  store i32 %47, ptr %15, align 8
  br label %add_induce.exit

add_induce.exit:                                  ; preds = %40, %44
  %.sink.i = phi i32 [ %46, %44 ], [ %42, %40 ]
  %.sink1.i = phi ptr [ %45, %44 ], [ %41, %40 ]
  %48 = sext i32 %.sink.i to i64
  %49 = getelementptr inbounds i32, ptr %.sink1.i, i64 %48
  store i32 %.060, ptr %49, align 4
  %50 = load ptr, ptr %18, align 8
  %51 = getelementptr inbounds i8, ptr %50, i64 %37
  store i8 1, ptr %51, align 1
  %52 = load ptr, ptr %13, align 8
  %53 = getelementptr inbounds i32, ptr %52, i64 %37
  %54 = load i32, ptr %53, align 4
  %55 = add nsw i32 %.060, 1
  %56 = add i32 %55, %54
  %57 = load i32, ptr %0, align 8
  %58 = icmp slt i32 %56, %57
  br i1 %58, label %.lr.ph, label %._crit_edge, !llvm.loop !59

._crit_edge:                                      ; preds = %add_induce.exit, %21
  %59 = tail call fastcc i32 @refine(ptr noundef nonnull %0, ptr noundef %1)
  %60 = load i32, ptr %12, align 8
  %61 = icmp sgt i32 %60, %34
  br i1 %61, label %.preheader, label %89

.preheader:                                       ; preds = %._crit_edge
  %62 = load i32, ptr %0, align 8
  %63 = icmp sgt i32 %62, 0
  br i1 %63, label %.lr.ph62.preheader, label %._crit_edge63

.lr.ph62.preheader:                               ; preds = %.preheader
  %.val.pre = load ptr, ptr %13, align 8
  br label %.lr.ph62

.lr.ph62:                                         ; preds = %.lr.ph62.preheader, %add_induce.exit58
  %.val = phi ptr [ %79, %add_induce.exit58 ], [ %.val.pre, %.lr.ph62.preheader ]
  %.161 = phi i32 [ %83, %add_induce.exit58 ], [ 0, %.lr.ph62.preheader ]
  %64 = sext i32 %.161 to i64
  %65 = getelementptr inbounds i32, ptr %.val, i64 %64
  %66 = load i32, ptr %65, align 4
  %.not.i55 = icmp eq i32 %66, 0
  br i1 %.not.i55, label %67, label %71

67:                                               ; preds = %.lr.ph62
  %68 = load ptr, ptr %16, align 8
  %69 = load i32, ptr %17, align 4
  %70 = add nsw i32 %69, 1
  store i32 %70, ptr %17, align 4
  br label %add_induce.exit58

71:                                               ; preds = %.lr.ph62
  %72 = load ptr, ptr %14, align 8
  %73 = load i32, ptr %15, align 8
  %74 = add nsw i32 %73, 1
  store i32 %74, ptr %15, align 8
  br label %add_induce.exit58

add_induce.exit58:                                ; preds = %67, %71
  %.sink.i56 = phi i32 [ %73, %71 ], [ %69, %67 ]
  %.sink1.i57 = phi ptr [ %72, %71 ], [ %68, %67 ]
  %75 = sext i32 %.sink.i56 to i64
  %76 = getelementptr inbounds i32, ptr %.sink1.i57, i64 %75
  store i32 %.161, ptr %76, align 4
  %77 = load ptr, ptr %18, align 8
  %78 = getelementptr inbounds i8, ptr %77, i64 %64
  store i8 1, ptr %78, align 1
  %79 = load ptr, ptr %13, align 8
  %80 = getelementptr inbounds i32, ptr %79, i64 %64
  %81 = load i32, ptr %80, align 4
  %82 = add nsw i32 %.161, 1
  %83 = add i32 %82, %81
  %84 = load i32, ptr %0, align 8
  %85 = icmp slt i32 %83, %84
  br i1 %85, label %.lr.ph62, label %._crit_edge63, !llvm.loop !60

._crit_edge63:                                    ; preds = %add_induce.exit58, %.preheader
  %86 = load ptr, ptr %19, align 8
  store ptr %86, ptr %10, align 8
  %87 = load ptr, ptr %20, align 8
  store ptr %87, ptr %11, align 8
  %88 = tail call fastcc range(i32 0, 2) i32 @refine(ptr noundef nonnull %0, ptr noundef %1)
  br label %89

89:                                               ; preds = %._crit_edge63, %._crit_edge
  %.148 = phi i32 [ 0, %._crit_edge63 ], [ %.04764, %._crit_edge ]
  %90 = getelementptr inbounds nuw i8, ptr %23, i64 8
  %91 = load ptr, ptr %90, align 8
  %.not.i59 = icmp eq ptr %91, null
  br i1 %.not.i59, label %Vec_IntFree.exit, label %92

92:                                               ; preds = %89
  tail call void @free(ptr noundef nonnull %91) #24
  br label %Vec_IntFree.exit

Vec_IntFree.exit:                                 ; preds = %89, %92
  tail call void @free(ptr noundef nonnull %23) #24
  %.not = icmp eq ptr %31, null
  br i1 %.not, label %94, label %93

93:                                               ; preds = %Vec_IntFree.exit
  tail call void @free(ptr noundef nonnull %31) #24
  br label %94

94:                                               ; preds = %Vec_IntFree.exit, %93
  %.not52 = icmp eq ptr %33, null
  br i1 %.not52, label %96, label %95

95:                                               ; preds = %94
  tail call void @free(ptr noundef nonnull %33) #24
  br label %96

96:                                               ; preds = %94, %95
  tail call void @free(ptr noundef nonnull %29) #24
  %97 = add nsw i32 %.148, 1
  %98 = load i32, ptr @NUM_SIM2_ITERATION, align 4
  %99 = icmp slt i32 %97, %98
  br i1 %99, label %21, label %._crit_edge67, !llvm.loop !61

._crit_edge67:                                    ; preds = %96, %2
  ret i32 1
}